(dp1
S'files'
p2
(dp3
S'janitoo_manager_utils'
p4
(dp5
S'index'
p6
(dp7
S'html_filename'
p8
S'janitoo_manager_utils.html'
p9
sS'name'
p10
S'janitoo_manager.utils'
p11
sS'nums'
p12
ccopy_reg
_reconstructor
p13
(ccoverage.results
Numbers
p14
c__builtin__
object
p15
NtRp16
(dp17
S'n_files'
p18
I1
sS'n_branches'
p19
I0
sS'n_statements'
p20
I0
sS'n_excluded'
p21
I0
sS'n_partial_branches'
p22
I0
sS'n_missing'
p23
I0
sS'n_missing_branches'
p24
I0
sbssS'hash'
p25
S'\xca\xf5\x9f\x7f\x88\xdfa\x831|T\x1d\xbc}\xa5v'
p26
ssS'janitoo_manager_user'
p27
(dp28
g6
(dp29
g8
S'janitoo_manager_user.html'
p30
sg10
S'janitoo_manager.user'
p31
sg12
g13
(g14
g15
NtRp32
(dp33
g18
I1
sg19
I0
sg20
I0
sg21
I0
sg22
I0
sg23
I0
sg24
I0
sbssg25
S'\xca\xf5\x9f\x7f\x88\xdfa\x831|T\x1d\xbc}\xa5v'
p34
ssS'janitoo_manager_admin_socket'
p35
(dp36
g6
(dp37
g8
S'janitoo_manager_admin_socket.html'
p38
sg10
S'janitoo_manager.admin.socket'
p39
sg12
g13
(g14
g15
NtRp40
(dp41
g18
I1
sg19
I0
sg20
I225
sg21
I0
sg22
I0
sg23
I192
sg24
I0
sbssg25
S'^\x17h\xe1\xd6\x06\xe0%\\33\xa6\x05t\xdaX'
p42
ssS'janitoo_manager_utils_helpers'
p43
(dp44
g6
(dp45
g8
S'janitoo_manager_utils_helpers.html'
p46
sg10
S'janitoo_manager.utils.helpers'
p47
sg12
g13
(g14
g15
NtRp48
(dp49
g18
I1
sg19
I0
sg20
I196
sg21
I37
sg22
I0
sg23
I153
sg24
I0
sbssg25
S'F\x19\x83\xeciCdf\xac\x10I\x99uX7:'
p50
ssS'janitoo_manager_utils_fields'
p51
(dp52
g6
(dp53
g8
S'janitoo_manager_utils_fields.html'
p54
sg10
S'janitoo_manager.utils.fields'
p55
sg12
g13
(g14
g15
NtRp56
(dp57
g18
I1
sg19
I0
sg20
I21
sg21
I0
sg22
I0
sg23
I9
sg24
I0
sbssg25
S'\xe9\x85\xd2\xa3\xba+!\xfb\xed\x1f`tD\xe6")'
p58
ssS'janitoo_manager__compat'
p59
(dp60
g6
(dp61
g8
S'janitoo_manager__compat.html'
p62
sg10
S'janitoo_manager._compat'
p63
sg12
g13
(g14
g15
NtRp64
(dp65
g18
I1
sg19
I0
sg20
I9
sg21
I20
sg22
I0
sg23
I0
sg24
I0
sbssg25
S'mh%\xd2\x02ygws\x8a<\xbd\x1d&DO'
p66
ssS'janitoo_manager_email'
p67
(dp68
g6
(dp69
g8
S'janitoo_manager_email.html'
p70
sg10
S'janitoo_manager.email'
p71
sg12
g13
(g14
g15
NtRp72
(dp73
g18
I1
sg19
I0
sg20
I18
sg21
I0
sg22
I0
sg23
I5
sg24
I0
sbssg25
S',\xb6\xbe|\xc1\x00\x99n\xd0\xf0\xdc<\xdb.k\xe8'
p74
ssS'janitoo_manager_utils_database'
p75
(dp76
g6
(dp77
g8
S'janitoo_manager_utils_database.html'
p78
sg10
S'janitoo_manager.utils.database'
p79
sg12
g13
(g14
g15
NtRp80
(dp81
g18
I1
sg19
I0
sg20
I19
sg21
I0
sg22
I0
sg23
I7
sg24
I0
sbssg25
S'\x02Q\xe0G\xcf\x8b;w\xb0\xc3\x96\x15\x03\xf0\xe9\xbc'
p82
ssS'janitoo_manager_extensions'
p83
(dp84
g6
(dp85
g8
S'janitoo_manager_extensions.html'
p86
sg10
S'janitoo_manager.extensions'
p87
sg12
g13
(g14
g15
NtRp88
(dp89
g18
I1
sg19
I0
sg20
I30
sg21
I0
sg22
I0
sg23
I2
sg24
I0
sbssg25
S'\xd8\xc7\x05\xbc"\xe4o*\xd1\x8aH\xab\x8f\x9b\xf0Q'
p90
ssS'janitoo_manager'
p91
(dp92
g6
(dp93
g8
S'janitoo_manager.html'
p94
sg10
g91
sg12
g13
(g14
g15
NtRp95
(dp96
g18
I1
sg19
I0
sg20
I5
sg21
I5
sg22
I0
sg23
I0
sg24
I0
sbssg25
S'\x17\xc7\xf8>\xf6\xf9\x93\\4`Dx\xdfB\x10\xda'
p97
ssS'janitoo_manager_user_models'
p98
(dp99
g6
(dp100
g8
S'janitoo_manager_user_models.html'
p101
sg10
S'janitoo_manager.user.models'
p102
sg12
g13
(g14
g15
NtRp103
(dp104
g18
I1
sg19
I0
sg20
I32
sg21
I0
sg22
I0
sg23
I4
sg24
I0
sbssg25
S'\x92i\x98\x0e>\xcb\xab2\x13\x00\x1e\x9d8<-y'
p105
ssS'janitoo_manager_portal'
p106
(dp107
g6
(dp108
g8
S'janitoo_manager_portal.html'
p109
sg10
S'janitoo_manager.portal'
p110
sg12
g13
(g14
g15
NtRp111
(dp112
g18
I1
sg19
I0
sg20
I0
sg21
I0
sg22
I0
sg23
I0
sg24
I0
sbssg25
S'\xca\xf5\x9f\x7f\x88\xdfa\x831|T\x1d\xbc}\xa5v'
p113
ssS'janitoo_manager_management'
p114
(dp115
g6
(dp116
g8
S'janitoo_manager_management.html'
p117
sg10
S'janitoo_manager.management'
p118
sg12
g13
(g14
g15
NtRp119
(dp120
g18
I1
sg19
I0
sg20
I0
sg21
I0
sg22
I0
sg23
I0
sg24
I0
sbssg25
S'\xca\xf5\x9f\x7f\x88\xdfa\x831|T\x1d\xbc}\xa5v'
p121
ssS'janitoo_manager_auth_forms'
p122
(dp123
g6
(dp124
g8
S'janitoo_manager_auth_forms.html'
p125
sg10
S'janitoo_manager.auth.forms'
p126
sg12
g13
(g14
g15
NtRp127
(dp128
g18
I1
sg19
I0
sg20
I57
sg21
I0
sg22
I0
sg23
I11
sg24
I0
sbssg25
S"b\xf1\xfa96S\x91\xd2\xfc\xf4'!\x92\xfd\x89\xf0"
p129
ssS'janitoo_manager_user_views'
p130
(dp131
g6
(dp132
g8
S'janitoo_manager_user_views.html'
p133
sg10
S'janitoo_manager.user.views'
p134
sg12
g13
(g14
g15
NtRp135
(dp136
g18
I1
sg19
I0
sg20
I56
sg21
I0
sg22
I0
sg23
I31
sg24
I0
sbssg25
S'w\xaa\xa5)U\xa4\xc4\x0e\xef\x87\x1d\x8d\x0ep+\x9d'
p137
ssS'janitoo_manager_auth'
p138
(dp139
g6
(dp140
g8
S'janitoo_manager_auth.html'
p141
sg10
S'janitoo_manager.auth'
p142
sg12
g13
(g14
g15
NtRp143
(dp144
g18
I1
sg19
I0
sg20
I0
sg21
I0
sg22
I0
sg23
I0
sg24
I0
sbssg25
S'\xe0X\xa1u\x17>\xb3\xfd{\xe1\xbd\xe3\x8d\xa0\xc4;'
p145
ssS'janitoo_manager_app'
p146
(dp147
g6
(dp148
g8
S'janitoo_manager_app.html'
p149
sg10
S'janitoo_manager.app'
p150
sg12
g13
(g14
g15
NtRp151
(dp152
g18
I1
sg19
I0
sg20
I111
sg21
I0
sg22
I0
sg23
I17
sg24
I0
sbssg25
S'Du\x8aA\xe9\x1b\xff\xe0\x9bw1\xbc\xb2\x95\xd0d'
p153
ssS'janitoo_manager_utils_settings'
p154
(dp155
g6
(dp156
g8
S'janitoo_manager_utils_settings.html'
p157
sg10
S'janitoo_manager.utils.settings'
p158
sg12
g13
(g14
g15
NtRp159
(dp160
g18
I1
sg19
I0
sg20
I21
sg21
I2
sg22
I0
sg23
I3
sg24
I0
sbssg25
S'\xa2(OFU\xdaq\xbd\x88\x87\\\xbf\xee\xef\xa6\xec'
p161
ssS'janitoo_manager_utils_translations'
p162
(dp163
g6
(dp164
g8
S'janitoo_manager_utils_translations.html'
p165
sg10
S'janitoo_manager.utils.translations'
p166
sg12
g13
(g14
g15
NtRp167
(dp168
g18
I1
sg19
I0
sg20
I28
sg21
I0
sg22
I0
sg23
I2
sg24
I0
sbssg25
S'\x9b\xf1N\x99Z\xdb\xfd\x950\xff\x1f\x1b\xa9\xd3\xc4='
p169
ssS'janitoo_manager_utils_widgets'
p170
(dp171
g6
(dp172
g8
S'janitoo_manager_utils_widgets.html'
p173
sg10
S'janitoo_manager.utils.widgets'
p174
sg12
g13
(g14
g15
NtRp175
(dp176
g18
I1
sg19
I0
sg20
I61
sg21
I2
sg22
I0
sg23
I42
sg24
I0
sbssg25
S'\xef\xfa&\xb9\xea\xe1\x18\x08P\x91\xc1\x88\x19\x12"\xf1'
p177
ssS'janitoo_manager_utils_markup'
p178
(dp179
g6
(dp180
g8
S'janitoo_manager_utils_markup.html'
p181
sg10
S'janitoo_manager.utils.markup'
p182
sg12
g13
(g14
g15
NtRp183
(dp184
g18
I1
sg19
I0
sg20
I54
sg21
I0
sg22
I0
sg23
I20
sg24
I0
sbssg25
S'\xb2\xaeV\xa98\xc5uzy\xc8\xd2?j\xb7\r\x88'
p185
ssS'janitoo_manager_management_models'
p186
(dp187
g6
(dp188
g8
S'janitoo_manager_management_models.html'
p189
sg10
S'janitoo_manager.management.models'
p190
sg12
g13
(g14
g15
NtRp191
(dp192
g18
I1
sg19
I0
sg20
I50
sg21
I0
sg22
I0
sg23
I32
sg24
I0
sbssg25
S'\x84^\xf1\xcffV\xf1\xa6\xb7\xc1\xcfkL\xa0\xd1o'
p193
ssS'janitoo_manager_admin_views'
p194
(dp195
g6
(dp196
g8
S'janitoo_manager_admin_views.html'
p197
sg10
S'janitoo_manager.admin.views'
p198
sg12
g13
(g14
g15
NtRp199
(dp200
g18
I1
sg19
I0
sg20
I62
sg21
I0
sg22
I0
sg23
I11
sg24
I0
sbssg25
S'\xc2\xbaF\\$\xc4\xa8\x8e\xcbF\xef^d\xf8T\xe7'
p201
ssS'janitoo_manager_configs'
p202
(dp203
g6
(dp204
g8
S'janitoo_manager_configs.html'
p205
sg10
S'janitoo_manager.configs'
p206
sg12
g13
(g14
g15
NtRp207
(dp208
g18
I1
sg19
I0
sg20
I0
sg21
I0
sg22
I0
sg23
I0
sg24
I0
sbssg25
S'\xca\xf5\x9f\x7f\x88\xdfa\x831|T\x1d\xbc}\xa5v'
p209
ssS'janitoo_manager_admin'
p210
(dp211
g6
(dp212
g8
S'janitoo_manager_admin.html'
p213
sg10
S'janitoo_manager.admin'
p214
sg12
g13
(g14
g15
NtRp215
(dp216
g18
I1
sg19
I0
sg20
I7
sg21
I2
sg22
I0
sg23
I0
sg24
I0
sbssg25
S'\x9fJ\xd0\x05\x16\x94\xa6\x92\x99\xbe\x9f\xa9\x9f\xef2W'
p217
ssS'janitoo_manager_user_forms'
p218
(dp219
g6
(dp220
g8
S'janitoo_manager_user_forms.html'
p221
sg10
S'janitoo_manager.user.forms'
p222
sg12
g13
(g14
g15
NtRp223
(dp224
g18
I1
sg19
I0
sg20
I60
sg21
I0
sg22
I0
sg23
I15
sg24
I0
sbssg25
S'\xaaoz\x88-\xa0\xe4\xb1+2\xc7\xdfp\x86<\x9c'
p225
ssS'janitoo_manager_auth_views'
p226
(dp227
g6
(dp228
g8
S'janitoo_manager_auth_views.html'
p229
sg10
S'janitoo_manager.auth.views'
p230
sg12
g13
(g14
g15
NtRp231
(dp232
g18
I1
sg19
I0
sg20
I92
sg21
I0
sg22
I0
sg23
I68
sg24
I0
sbssg25
S'\xf6\x04\xe3k\xe6:\x94\xdd\r.\xa79=\xf9\xe3\xef'
p233
ssS'janitoo_manager_utils_permissions'
p234
(dp235
g6
(dp236
g8
S'janitoo_manager_utils_permissions.html'
p237
sg10
S'janitoo_manager.utils.permissions'
p238
sg12
g13
(g14
g15
NtRp239
(dp240
g18
I1
sg19
I0
sg20
I50
sg21
I0
sg22
I0
sg23
I31
sg24
I0
sbssg25
S'\xd4{\x1f\x91\x10\xa7\xa7\n-\x97\x8e\xd0cmD\x98'
p241
ssS'janitoo_manager_portal_views'
p242
(dp243
g6
(dp244
g8
S'janitoo_manager_portal_views.html'
p245
sg10
S'janitoo_manager.portal.views'
p246
sg12
g13
(g14
g15
NtRp247
(dp248
g18
I1
sg19
I0
sg20
I23
sg21
I0
sg22
I0
sg23
I1
sg24
I0
sbssg25
S'$EI\x1c\x18\xb9\xf79\x9d\xccOD\x1a\x0e\xa5='
p249
ssS'janitoo_manager_network'
p250
(dp251
g6
(dp252
g8
S'janitoo_manager_network.html'
p253
sg10
S'janitoo_manager.network'
p254
sg12
g13
(g14
g15
NtRp255
(dp256
g18
I1
sg19
I0
sg20
I171
sg21
I0
sg22
I0
sg23
I36
sg24
I0
sbssg25
S'\x86\xe3V\xc0\x8d\xd1\xf4\x01q\xd7\xf2]\xf7\xdb~\x93'
p257
sssS'version'
p258
S'3.7.1'
p259
sS'settings'
p260
S'L\xb6\x9d\x1c\x10\x1c\x10\xc0"\xc2s7\xd5C\xc2\xe2'
p261
sS'format'
p262
I1
s.